; Function Attrs: nounwind uwtable
define range(i32 0, 2) i32 @stbte__category_button(ptr noundef readonly captures(none) %0, i32 noundef %1, i32 noundef %2, i32 noundef %3, i32 noundef %4, i32 noundef %5) local_unnamed_addr #15 {
  %7 = add nsw i32 %3, %1
  %8 = add nsw i32 %2, 13
  %9 = load i32, ptr getelementptr inbounds nuw (i8, ptr @stbte__ui, i64 24), align 8, !tbaa !99
  %.not.i = icmp slt i32 %9, %1
  br i1 %.not.i, label %stbte__hittest.exitthread-pre-split, label %10

10:                                               ; preds = %6
  %11 = load i32, ptr getelementptr inbounds nuw (i8, ptr @stbte__ui, i64 28), align 4, !tbaa !100
  %.not9.i = icmp sge i32 %11, %2
  %12 = icmp slt i32 %9, %7
  %or.cond10.i = and i1 %12, %.not9.i
  %13 = icmp slt i32 %11, %8
  %spec.select.i = and i1 %13, %or.cond10.i
  %14 = load i32, ptr getelementptr inbounds nuw (i8, ptr @stbte__ui, i64 20), align 4
  %15 = icmp sgt i32 %14, 0
  %or.cond.i = select i1 %spec.select.i, i1 %15, i1 false
  br i1 %or.cond.i, label %stbte__hittest.exit.thread, label %stbte__hittest.exit

stbte__hittest.exit.thread:                       ; preds = %10
  store i32 %4, ptr getelementptr inbounds nuw (i8, ptr @stbte__ui, i64 16), align 8, !tbaa !101
  br label %thread-pre-split

stbte__hittest.exitthread-pre-split:              ; preds = %6
  %.pr = load i32, ptr getelementptr inbounds nuw (i8, ptr @stbte__ui, i64 20), align 4, !tbaa !95
  br label %stbte__hittest.exit

stbte__hittest.exit:                              ; preds = %stbte__hittest.exitthread-pre-split, %10
  %16 = phi i32 [ %.pr, %stbte__hittest.exitthread-pre-split ], [ %14, %10 ]
  %17 = icmp eq i32 %16, 0
  br i1 %17, label %18, label %thread-pre-split

18:                                               ; preds = %stbte__hittest.exit
  %19 = sext i32 %5 to i64
  %20 = load i32, ptr getelementptr inbounds nuw (i8, ptr @stbte__ui, i64 8), align 8, !tbaa !94
  %21 = icmp eq i32 %20, %4
  %22 = zext i1 %21 to i64
  %23 = load i32, ptr getelementptr inbounds nuw (i8, ptr @stbte__ui, i64 12), align 4, !tbaa !102
  %24 = icmp eq i32 %23, %4
  %25 = zext i1 %24 to i64
  %26 = getelementptr inbounds [2 x [2 x [2 x i8]]], ptr @stbte__state_to_index, i64 0, i64 %19, i64 %22, i64 %25
  %27 = load i8, ptr %26, align 1, !tbaa !47
  %28 = zext i8 %27 to i32
  tail call void @stbte__draw_textbox(i32 noundef %1, i32 noundef %2, i32 noundef %7, i32 noundef %8, ptr noundef %0, i32 noundef 2, i32 noundef 2, i32 noundef 12, i32 noundef %28)
  %.pr21.pre = load i32, ptr getelementptr inbounds nuw (i8, ptr @stbte__ui, i64 20), align 4, !tbaa !95
  br label %thread-pre-split

thread-pre-split:                                 ; preds = %18, %stbte__hittest.exit, %stbte__hittest.exit.thread
  %29 = phi i32 [ %14, %stbte__hittest.exit.thread ], [ %16, %stbte__hittest.exit ], [ %.pr21.pre, %18 ]
  switch i32 %29, label %stbte__button_core.exit [
    i32 4, label %30
    i32 5, label %35
    i32 6, label %40
    i32 7, label %45
  ]

30:                                               ; preds = %thread-pre-split
  %31 = load i32, ptr getelementptr inbounds nuw (i8, ptr @stbte__ui, i64 12), align 4, !tbaa !102
  %32 = icmp eq i32 %31, %4
  %33 = load i32, ptr getelementptr inbounds nuw (i8, ptr @stbte__ui, i64 8), align 8
  %34 = icmp eq i32 %33, 0
  %or.cond.i20 = select i1 %32, i1 %34, i1 false
  br i1 %or.cond.i20, label %.sink.split.i, label %stbte__button_core.exit

35:                                               ; preds = %thread-pre-split
  %36 = load i32, ptr getelementptr inbounds nuw (i8, ptr @stbte__ui, i64 8), align 8, !tbaa !94
  %37 = icmp eq i32 %36, %4
  %38 = load i32, ptr getelementptr inbounds nuw (i8, ptr @stbte__ui, i64 12), align 4
  %39 = icmp eq i32 %38, %4
  %or.cond14.i = select i1 %37, i1 %39, i1 false
  br i1 %or.cond14.i, label %.sink.split.i, label %stbte__button_core.exit

40:                                               ; preds = %thread-pre-split
  %41 = load i32, ptr getelementptr inbounds nuw (i8, ptr @stbte__ui, i64 12), align 4, !tbaa !102
  %42 = icmp eq i32 %41, %4
  %43 = load i32, ptr getelementptr inbounds nuw (i8, ptr @stbte__ui, i64 8), align 8
  %44 = icmp eq i32 %43, 0
  %or.cond3.i = select i1 %42, i1 %44, i1 false
  br i1 %or.cond3.i, label %.sink.split.i, label %stbte__button_core.exit

45:                                               ; preds = %thread-pre-split
  %46 = load i32, ptr getelementptr inbounds nuw (i8, ptr @stbte__ui, i64 8), align 8, !tbaa !94
  %47 = icmp eq i32 %46, %4
  %48 = load i32, ptr getelementptr inbounds nuw (i8, ptr @stbte__ui, i64 12), align 4
  %49 = icmp eq i32 %48, %4
  %or.cond16.i = select i1 %47, i1 %49, i1 false
  br i1 %or.cond16.i, label %.sink.split.i, label %stbte__button_core.exit

.sink.split.i:                                    ; preds = %45, %40, %35, %30
  %.sink17.i = phi i32 [ %4, %30 ], [ 0, %35 ], [ %4, %40 ], [ 0, %45 ]
  %50 = phi i32 [ 0, %30 ], [ 1, %35 ], [ 0, %40 ], [ 0, %45 ]
  store i32 %.sink17.i, ptr getelementptr inbounds nuw (i8, ptr @stbte__ui, i64 8), align 8, !tbaa !94
  store i32 %29, ptr getelementptr inbounds nuw (i8, ptr @stbte__ui, i64 4), align 4, !tbaa !96
  store i32 0, ptr getelementptr inbounds nuw (i8, ptr @stbte__ui, i64 5244), align 4, !tbaa !97
  store i32 0, ptr getelementptr inbounds nuw (i8, ptr @stbte__ui, i64 5248), align 8, !tbaa !98
  br label %stbte__button_core.exit

stbte__button_core.exit:                          ; preds = %thread-pre-split, %30, %35, %40, %45, %.sink.split.i
  %.0.i = phi i32 [ 0, %45 ], [ 0, %40 ], [ 0, %35 ], [ 0, %30 ], [ 0, %thread-pre-split ], [ %50, %.sink.split.i ]
  ret i32 %.0.i
}